target datalayout = "e-m:e-p270:32:32-p271:32:32-p272:64:64-i64:64-i128:128-f80:128-n8:16:32:64-S128"
target triple = "x86_64-pc-linux-gnu"

; Function Attrs: nounwind uwtable
define hidden ptr @X509at_delete_attr(ptr noundef %0, i32 noundef %1) #0 {
  %3 = alloca ptr, align 8
  %4 = alloca ptr, align 8
  %5 = alloca i32, align 4
  %6 = alloca ptr, align 8
  %7 = alloca i32, align 4
  store ptr %0, ptr %4, align 8, !tbaa !6
  store i32 %1, ptr %5, align 4, !tbaa !11
  call void @llvm.lifetime.start.p0(i64 8, ptr %6) #3
  %8 = load ptr, ptr %4, align 8, !tbaa !6
  %9 = icmp eq ptr %8, null
  br i1 %9, label %19, label %10

10:                                               ; preds = %2
  %11 = load i32, ptr %5, align 4, !tbaa !11
  %12 = icmp slt i32 %11, 0
  br i1 %12, label %19, label %13

13:                                               ; preds = %10
  %14 = load ptr, ptr %4, align 8, !tbaa !6
  %15 = call i64 @sk_num(ptr noundef %14)
  %16 = load i32, ptr %5, align 4, !tbaa !11
  %17 = sext i32 %16 to i64
  %18 = icmp ule i64 %15, %17
  br i1 %18, label %19, label %20

19:                                               ; preds = %13, %10, %2
  store ptr null, ptr %3, align 8
  store i32 1, ptr %7, align 4
  br label %26

20:                                               ; preds = %13
  %21 = load ptr, ptr %4, align 8, !tbaa !6
  %22 = load i32, ptr %5, align 4, !tbaa !11
  %23 = sext i32 %22 to i64
  %24 = call ptr @sk_delete(ptr noundef %21, i64 noundef %23)
  store ptr %24, ptr %6, align 8, !tbaa !15
  %25 = load ptr, ptr %6, align 8, !tbaa !15
  store ptr %25, ptr %3, align 8
  store i32 1, ptr %7, align 4
  br label %26

26:                                               ; preds = %20, %19
  call void @llvm.lifetime.end.p0(i64 8, ptr %6) #3
  %27 = load ptr, ptr %3, align 8
  ret ptr %27
}